target datalayout = "e-m:e-p270:32:32-p271:32:32-p272:64:64-i64:64-i128:128-f80:128-n8:16:32:64-S128"
target triple = "x86_64-pc-linux-gnu"

%struct.AVStream = type { ptr, i32, i32, ptr, ptr, %struct.AVRational, i64, i64, i64, i32, i32, %struct.AVRational, ptr, %struct.AVRational, %struct.AVPacket, i32, %struct.AVRational, i32 }
%struct.AVPacket = type { ptr, i64, i64, ptr, i32, i32, i32, ptr, i32, i64, i64, ptr, ptr, %struct.AVRational }
%struct.AVRational = type { i32, i32 }
%struct.AVCodecParameters = type { i32, i32, i32, ptr, i32, ptr, i32, i32, i64, i32, i32, i32, i32, i32, i32, %struct.AVRational, %struct.AVRational, i32, i32, i32, i32, i32, i32, i32, %struct.AVChannelLayout, i32, i32, i32, i32, i32, i32 }
%struct.AVChannelLayout = type { i32, i32, %union.anon, ptr }
%union.anon = type { i64 }

; Function Attrs: nounwind uwtable
define internal void @parse_mpeg1waveformatex(ptr noundef %0) #0 {
  %2 = alloca ptr, align 8
  %3 = alloca %struct.AVChannelLayout, align 8
  %4 = alloca %struct.AVChannelLayout, align 8
  store ptr %0, ptr %2, align 8, !tbaa !45
  %5 = load ptr, ptr %2, align 8, !tbaa !45
  %6 = getelementptr inbounds nuw %struct.AVStream, ptr %5, i32 0, i32 3
  %7 = load ptr, ptr %6, align 8, !tbaa !97
  %8 = getelementptr inbounds nuw %struct.AVCodecParameters, ptr %7, i32 0, i32 3
  %9 = load ptr, ptr %8, align 8, !tbaa !102
  %10 = load i16, ptr %9, align 1, !tbaa !68
  %11 = zext i16 %10 to i32
  switch i32 %11, label %27 [
    i32 1, label %12
    i32 2, label %17
    i32 4, label %22
  ]

12:                                               ; preds = %1
  %13 = load ptr, ptr %2, align 8, !tbaa !45
  %14 = getelementptr inbounds nuw %struct.AVStream, ptr %13, i32 0, i32 3
  %15 = load ptr, ptr %14, align 8, !tbaa !97
  %16 = getelementptr inbounds nuw %struct.AVCodecParameters, ptr %15, i32 0, i32 1
  store i32 86058, ptr %16, align 4, !tbaa !101
  br label %27

17:                                               ; preds = %1
  %18 = load ptr, ptr %2, align 8, !tbaa !45
  %19 = getelementptr inbounds nuw %struct.AVStream, ptr %18, i32 0, i32 3
  %20 = load ptr, ptr %19, align 8, !tbaa !97
  %21 = getelementptr inbounds nuw %struct.AVCodecParameters, ptr %20, i32 0, i32 1
  store i32 86016, ptr %21, align 4, !tbaa !101
  br label %27

22:                                               ; preds = %1
  %23 = load ptr, ptr %2, align 8, !tbaa !45
  %24 = getelementptr inbounds nuw %struct.AVStream, ptr %23, i32 0, i32 3
  %25 = load ptr, ptr %24, align 8, !tbaa !97
  %26 = getelementptr inbounds nuw %struct.AVCodecParameters, ptr %25, i32 0, i32 1
  store i32 86017, ptr %26, align 4, !tbaa !101
  br label %27

27:                                               ; preds = %1, %22, %17, %12
  %28 = load ptr, ptr %2, align 8, !tbaa !45
  %29 = getelementptr inbounds nuw %struct.AVStream, ptr %28, i32 0, i32 3
  %30 = load ptr, ptr %29, align 8, !tbaa !97
  %31 = getelementptr inbounds nuw %struct.AVCodecParameters, ptr %30, i32 0, i32 3
  %32 = load ptr, ptr %31, align 8, !tbaa !102
  %33 = getelementptr inbounds i8, ptr %32, i64 2
  %34 = load i32, ptr %33, align 1, !tbaa !68
  %35 = zext i32 %34 to i64
  %36 = load ptr, ptr %2, align 8, !tbaa !45
  %37 = getelementptr inbounds nuw %struct.AVStream, ptr %36, i32 0, i32 3
  %38 = load ptr, ptr %37, align 8, !tbaa !97
  %39 = getelementptr inbounds nuw %struct.AVCodecParameters, ptr %38, i32 0, i32 8
  store i64 %35, ptr %39, align 8, !tbaa !116
  %40 = load ptr, ptr %2, align 8, !tbaa !45
  %41 = getelementptr inbounds nuw %struct.AVStream, ptr %40, i32 0, i32 3
  %42 = load ptr, ptr %41, align 8, !tbaa !97
  %43 = getelementptr inbounds nuw %struct.AVCodecParameters, ptr %42, i32 0, i32 3
  %44 = load ptr, ptr %43, align 8, !tbaa !102
  %45 = getelementptr inbounds i8, ptr %44, i64 6
  %46 = load i16, ptr %45, align 1, !tbaa !68
  %47 = zext i16 %46 to i32
  switch i32 %47, label %66 [
    i32 1, label %48
    i32 2, label %48
    i32 4, label %48
    i32 8, label %57
  ]

48:                                               ; preds = %27, %27, %27
  %49 = load ptr, ptr %2, align 8, !tbaa !45
  %50 = getelementptr inbounds nuw %struct.AVStream, ptr %49, i32 0, i32 3
  %51 = load ptr, ptr %50, align 8, !tbaa !97
  %52 = getelementptr inbounds nuw %struct.AVCodecParameters, ptr %51, i32 0, i32 24
  %53 = getelementptr inbounds nuw %struct.AVChannelLayout, ptr %3, i32 0, i32 0
  store i32 1, ptr %53, align 8, !tbaa !117
  %54 = getelementptr inbounds nuw %struct.AVChannelLayout, ptr %3, i32 0, i32 1
  store i32 2, ptr %54, align 4, !tbaa !118
  %55 = getelementptr inbounds nuw %struct.AVChannelLayout, ptr %3, i32 0, i32 2
  store i64 3, ptr %55, align 8, !tbaa !68
  %56 = getelementptr inbounds nuw %struct.AVChannelLayout, ptr %3, i32 0, i32 3
  store ptr null, ptr %56, align 8, !tbaa !119
  call void @llvm.memcpy.p0.p0.i64(ptr align 8 %52, ptr align 8 %3, i64 24, i1 false), !tbaa.struct !120
  br label %66

57:                                               ; preds = %27
  %58 = load ptr, ptr %2, align 8, !tbaa !45
  %59 = getelementptr inbounds nuw %struct.AVStream, ptr %58, i32 0, i32 3
  %60 = load ptr, ptr %59, align 8, !tbaa !97
  %61 = getelementptr inbounds nuw %struct.AVCodecParameters, ptr %60, i32 0, i32 24
  %62 = getelementptr inbounds nuw %struct.AVChannelLayout, ptr %4, i32 0, i32 0
  store i32 1, ptr %62, align 8, !tbaa !117
  %63 = getelementptr inbounds nuw %struct.AVChannelLayout, ptr %4, i32 0, i32 1
  store i32 1, ptr %63, align 4, !tbaa !118
  %64 = getelementptr inbounds nuw %struct.AVChannelLayout, ptr %4, i32 0, i32 2
  store i64 4, ptr %64, align 8, !tbaa !68
  %65 = getelementptr inbounds nuw %struct.AVChannelLayout, ptr %4, i32 0, i32 3
  store ptr null, ptr %65, align 8, !tbaa !119
  call void @llvm.memcpy.p0.p0.i64(ptr align 8 %61, ptr align 8 %4, i64 24, i1 false), !tbaa.struct !120
  br label %66

66:                                               ; preds = %27, %57, %48
  ret void
}