; Function Attrs: mustprogress nofree norecurse nosync nounwind willreturn memory(read, argmem: readwrite, inaccessiblemem: none) uwtable
define internal fastcc void @parse_mpeg1waveformatex(ptr captures(none) initializes((48, 56)) %.16.val) unnamed_addr #5 {
  %1 = getelementptr inbounds nuw i8, ptr %.16.val, i64 16
  %2 = load ptr, ptr %1, align 8, !tbaa !81
  %3 = load i16, ptr %2, align 1, !tbaa !36
  switch i16 %3, label %7 [
    i16 1, label %.sink.split
    i16 2, label %4
    i16 4, label %5
  ]

4:                                                ; preds = %0
  br label %.sink.split

5:                                                ; preds = %0
  br label %.sink.split

.sink.split:                                      ; preds = %0, %4, %5
  %.sink = phi i32 [ 86017, %5 ], [ 86016, %4 ], [ 86058, %0 ]
  %6 = getelementptr inbounds nuw i8, ptr %.16.val, i64 4
  store i32 %.sink, ptr %6, align 4, !tbaa !99
  br label %7

7:                                                ; preds = %.sink.split, %0
  %8 = getelementptr inbounds nuw i8, ptr %2, i64 2
  %9 = load i32, ptr %8, align 1, !tbaa !36
  %10 = zext i32 %9 to i64
  %11 = getelementptr inbounds nuw i8, ptr %.16.val, i64 48
  store i64 %10, ptr %11, align 8, !tbaa !101
  %12 = getelementptr inbounds nuw i8, ptr %2, i64 6
  %13 = load i16, ptr %12, align 1, !tbaa !36
  %switch.tableidx = add i16 %13, -1
  %14 = icmp ult i16 %switch.tableidx, 8
  %switch.maskindex = trunc i16 %switch.tableidx to i8
  %switch.shifted = lshr i8 -117, %switch.maskindex
  %switch.lobit = trunc i8 %switch.shifted to i1
  %or.cond = select i1 %14, i1 %switch.lobit, i1 false
  br i1 %or.cond, label %switch.lookup, label %18

switch.lookup:                                    ; preds = %7
  %15 = zext nneg i16 %switch.tableidx to i64
  %switch.gep = getelementptr inbounds nuw [8 x i32], ptr @switch.table.parse_mpeg1waveformatex, i64 0, i64 %15
  %switch.load = load i32, ptr %switch.gep, align 4
  %16 = zext nneg i16 %switch.tableidx to i64
  %switch.gep6 = getelementptr inbounds nuw [8 x i64], ptr @switch.table.parse_mpeg1waveformatex.4, i64 0, i64 %16
  %switch.load7 = load i64, ptr %switch.gep6, align 8
  %17 = getelementptr inbounds nuw i8, ptr %.16.val, i64 128
  store i32 1, ptr %17, align 8, !tbaa !57
  %.sroa.2.0..sroa_idx = getelementptr inbounds nuw i8, ptr %.16.val, i64 132
  store i32 %switch.load, ptr %.sroa.2.0..sroa_idx, align 4, !tbaa !57
  %.sroa.3.0..sroa_idx = getelementptr inbounds nuw i8, ptr %.16.val, i64 136
  store i64 %switch.load7, ptr %.sroa.3.0..sroa_idx, align 8, !tbaa !36
  %.sroa.4.0..sroa_idx = getelementptr inbounds nuw i8, ptr %.16.val, i64 144
  store ptr null, ptr %.sroa.4.0..sroa_idx, align 8, !tbaa !102
  br label %18

18:                                               ; preds = %7, %switch.lookup
  ret void
}